TN:
SF:/home/runner/work/CppUtil/CppUtil/Array/src/Array.hpp
FN:100,117,_ZN5ArrayIcEaSERKS0_
FN:100,117,_ZN5ArrayIiEaSERKS0_
FN:119,122,_ZNK5ArrayIcEcvPcEv
FN:119,122,_ZNK5ArrayIiEcvPiEv
FN:124,127,_ZN5ArrayINSt7__cxx1112basic_stringIcSt11char_traitsIcESaIcEEEED2Ev
FN:124,127,_ZN5ArrayIcED2Ev
FN:124,127,_ZN5ArrayIdED2Ev
FN:124,127,_ZN5ArrayIiED2Ev
FN:124,127,_ZN5ArrayImED2Ev
FN:129,144,_ZN5ArrayINSt7__cxx1112basic_stringIcSt11char_traitsIcESaIcEEEEixEm
FN:129,144,_ZN5ArrayIcEixEm
FN:129,144,_ZN5ArrayIdEixEm
FN:129,144,_ZN5ArrayIiEixEm
FN:129,144,_ZN5ArrayImEixEm
FN:146,161,_ZNK5ArrayINSt7__cxx1112basic_stringIcSt11char_traitsIcESaIcEEEEixEm
FN:146,161,_ZNK5ArrayIcEixEm
FN:146,161,_ZNK5ArrayIdEixEm
FN:146,161,_ZNK5ArrayIiEixEm
FN:146,161,_ZNK5ArrayImEixEm
FN:163,166,_ZNK5ArrayINSt7__cxx1112basic_stringIcSt11char_traitsIcESaIcEEEE7getSizeEv
FN:163,166,_ZNK5ArrayIcE7getSizeEv
FN:163,166,_ZNK5ArrayIdE7getSizeEv
FN:163,166,_ZNK5ArrayIiE7getSizeEv
FN:163,166,_ZNK5ArrayImE7getSizeEv
FN:168,171,_ZNK5ArrayINSt7__cxx1112basic_stringIcSt11char_traitsIcESaIcEEEE7isEmptyEv
FN:168,171,_ZNK5ArrayIcE7isEmptyEv
FN:168,171,_ZNK5ArrayIdE7isEmptyEv
FN:168,171,_ZNK5ArrayIiE7isEmptyEv
FN:168,171,_ZNK5ArrayImE7isEmptyEv
FN:20,23,_ZN5ArrayIiEC2Ev
FN:217,227,_ZNK5ArrayINSt7__cxx1112basic_stringIcSt11char_traitsIcESaIcEEEEeqERKS6_
FN:217,227,_ZNK5ArrayIcEeqERKS0_
FN:217,227,_ZNK5ArrayIdEeqERKS0_
FN:217,227,_ZNK5ArrayIiEeqERKS0_
FN:217,227,_ZNK5ArrayImEeqERKS0_
FN:229,232,_ZNK5ArrayINSt7__cxx1112basic_stringIcSt11char_traitsIcESaIcEEEEneERKS6_
FN:229,232,_ZNK5ArrayIcEneERKS0_
FN:229,232,_ZNK5ArrayIdEneERKS0_
FN:229,232,_ZNK5ArrayIiEneERKS0_
FN:229,232,_ZNK5ArrayImEneERKS0_
FN:234,252,_ZN5ArrayIiE7foreachIZL23CATCH2_INTERNAL_TEST_29vEUlRiE_EEvOKT_
FN:25,34,_ZN5ArrayINSt7__cxx1112basic_stringIcSt11char_traitsIcESaIcEEEEC2Em
FN:25,34,_ZN5ArrayIcEC2Em
FN:25,34,_ZN5ArrayIdEC2Em
FN:25,34,_ZN5ArrayIiEC2Em
FN:25,34,_ZN5ArrayImEC2Em
FN:274,295,_ZN5ArrayIiE3allIZL23CATCH2_INTERNAL_TEST_29vEUlRiE10_EEbOKT_
FN:274,295,_ZN5ArrayIiE3allIZL23CATCH2_INTERNAL_TEST_29vEUlRiE7_EEbOKT_
FN:321,342,_ZN5ArrayIiE3anyIZL23CATCH2_INTERNAL_TEST_29vEUlRiE1_EEbOKT_
FN:321,342,_ZN5ArrayIiE3anyIZL23CATCH2_INTERNAL_TEST_29vEUlRiE4_EEbOKT_
FN:36,54,_ZN5ArrayIcEC2EPKcm
FN:36,54,_ZN5ArrayIiEC2EPKim
FN:372,372,_ZN14ResizableArrayINSt7__cxx1112basic_stringIcSt11char_traitsIcESaIcEEEEC2Em
FN:372,372,_ZN14ResizableArrayIcEC2Em
FN:372,372,_ZN14ResizableArrayIdEC2Em
FN:372,372,_ZN14ResizableArrayIiEC2Em
FN:372,372,_ZN14ResizableArrayImEC2Em
FN:374,374,_ZN14ResizableArrayIcEC2EPKcm
FN:384,411,_ZN14ResizableArrayINSt7__cxx1112basic_stringIcSt11char_traitsIcESaIcEEEE6resizeEm
FN:384,411,_ZN14ResizableArrayIdE6resizeEm
FN:384,411,_ZN14ResizableArrayIiE6resizeEm
FN:384,411,_ZN14ResizableArrayImE6resizeEm
FN:422,445,_ZN14ResizableArrayINSt7__cxx1112basic_stringIcSt11char_traitsIcESaIcEEEE11resizeForceEm
FN:422,445,_ZN14ResizableArrayIdE11resizeForceEm
FN:422,445,_ZN14ResizableArrayIiE11resizeForceEm
FN:422,445,_ZN14ResizableArrayImE11resizeForceEm
FN:457,461,_ZN12DynamicArrayINSt7__cxx1112basic_stringIcSt11char_traitsIcESaIcEEEEC2Ev
FN:457,461,_ZN12DynamicArrayIdEC2Ev
FN:457,461,_ZN12DynamicArrayIiEC2Ev
FN:457,461,_ZN12DynamicArrayImEC2Ev
FN:463,472,_ZN12DynamicArrayIiEC2Em
FN:474,488,_ZN12DynamicArrayIiEC2Emm
FN:490,504,_ZN12DynamicArrayINSt7__cxx1112basic_stringIcSt11char_traitsIcESaIcEEEEixEm
FN:490,504,_ZN12DynamicArrayIdEixEm
FN:490,504,_ZN12DynamicArrayIiEixEm
FN:490,504,_ZN12DynamicArrayImEixEm
FN:522,525,_ZNK12DynamicArrayINSt7__cxx1112basic_stringIcSt11char_traitsIcESaIcEEEE8getCountEv
FN:522,525,_ZNK12DynamicArrayIdE8getCountEv
FN:522,525,_ZNK12DynamicArrayIiE8getCountEv
FN:522,525,_ZNK12DynamicArrayImE8getCountEv
FN:527,530,_ZNK12DynamicArrayINSt7__cxx1112basic_stringIcSt11char_traitsIcESaIcEEEE6getCapEv
FN:527,530,_ZNK12DynamicArrayIdE6getCapEv
FN:527,530,_ZNK12DynamicArrayIiE6getCapEv
FN:527,530,_ZNK12DynamicArrayImE6getCapEv
FN:532,535,_ZNK12DynamicArrayIiE15getResizeFactorEv
FN:537,545,_ZN12DynamicArrayINSt7__cxx1112basic_stringIcSt11char_traitsIcESaIcEEEE3addES5_
FN:537,545,_ZN12DynamicArrayIdE3addEd
FN:537,545,_ZN12DynamicArrayIiE3addEi
FN:537,545,_ZN12DynamicArrayImE3addEm
FN:547,572,_ZN12DynamicArrayINSt7__cxx1112basic_stringIcSt11char_traitsIcESaIcEEEE3addES5_m
FN:547,572,_ZN12DynamicArrayIdE3addEdm
FN:547,572,_ZN12DynamicArrayIiE3addEim
FN:547,572,_ZN12DynamicArrayImE3addEmm
FN:56,66,_ZN5ArrayIiEC2ERKS0_
FN:578,592,_ZN12DynamicArrayINSt7__cxx1112basic_stringIcSt11char_traitsIcESaIcEEEE6removeEv
FN:578,592,_ZN12DynamicArrayIdE6removeEv
FN:578,592,_ZN12DynamicArrayIiE6removeEv
FN:578,592,_ZN12DynamicArrayImE6removeEv
FN:601,630,_ZN12DynamicArrayINSt7__cxx1112basic_stringIcSt11char_traitsIcESaIcEEEE6removeEm
FN:601,630,_ZN12DynamicArrayIdE6removeEm
FN:601,630,_ZN12DynamicArrayIiE6removeEm
FN:601,630,_ZN12DynamicArrayImE6removeEm
FN:634,652,_ZN12DynamicArrayIiE7foreachIRZL23CATCH2_INTERNAL_TEST_19vEUlRiE_EEvmOT_
FN:634,652,_ZN12DynamicArrayIiE7foreachIZL23CATCH2_INTERNAL_TEST_19vEUlRiE0_EEvmOT_
FN:634,652,_ZN12DynamicArrayImE7foreachIRZNS0_7toArrayEvEUlRmmE_EEvmOT_
FN:654,657,_ZN12DynamicArrayIiE7foreachIZL23CATCH2_INTERNAL_TEST_19vEUlRiE_EEvOT_
FN:654,657,_ZN12DynamicArrayImE7foreachIZNS0_7toArrayEvEUlRmmE_EEvOT_
FN:659,680,_ZN12DynamicArrayIiE3anyIZL23CATCH2_INTERNAL_TEST_19vEUlRiE5_EEbOT_
FN:659,680,_ZN12DynamicArrayIiE3anyIZL23CATCH2_INTERNAL_TEST_19vEUlRiE8_EEbOT_
FN:682,703,_ZN12DynamicArrayIiE3allIZL23CATCH2_INTERNAL_TEST_19vEUlRiE2_EEbOT_
FN:682,703,_ZN12DynamicArrayIiE3allIZL23CATCH2_INTERNAL_TEST_19vEUlRimE0_EEbOT_
FN:705,710,_ZN12DynamicArrayImE7toArrayEv
FN:708,708,_ZZN12DynamicArrayImE7toArrayEvENKUlRmmE_clES1_m
FN:718,730,_ZNK5ArrayIiE4findERKi
FNDA:3,_ZN5ArrayIcEaSERKS0_
FNDA:4,_ZN5ArrayIiEaSERKS0_
FNDA:0,_ZNK5ArrayIcEcvPcEv
FNDA:1,_ZNK5ArrayIiEcvPiEv
FNDA:4,_ZN5ArrayINSt7__cxx1112basic_stringIcSt11char_traitsIcESaIcEEEED2Ev
FNDA:63,_ZN5ArrayIcED2Ev
FNDA:1,_ZN5ArrayIdED2Ev
FNDA:56,_ZN5ArrayIiED2Ev
FNDA:31,_ZN5ArrayImED2Ev
FNDA:107,_ZN5ArrayINSt7__cxx1112basic_stringIcSt11char_traitsIcESaIcEEEEixEm
FNDA:125,_ZN5ArrayIcEixEm
FNDA:6,_ZN5ArrayIdEixEm
FNDA:138221,_ZN5ArrayIiEixEm
FNDA:51837,_ZN5ArrayImEixEm
FNDA:0,_ZNK5ArrayINSt7__cxx1112basic_stringIcSt11char_traitsIcESaIcEEEEixEm
FNDA:399,_ZNK5ArrayIcEixEm
FNDA:0,_ZNK5ArrayIdEixEm
FNDA:124,_ZNK5ArrayIiEixEm
FNDA:0,_ZNK5ArrayImEixEm
FNDA:17,_ZNK5ArrayINSt7__cxx1112basic_stringIcSt11char_traitsIcESaIcEEEE7getSizeEv
FNDA:16,_ZNK5ArrayIcE7getSizeEv
FNDA:3,_ZNK5ArrayIdE7getSizeEv
FNDA:60078,_ZNK5ArrayIiE7getSizeEv
FNDA:10037,_ZNK5ArrayImE7getSizeEv
FNDA:0,_ZNK5ArrayINSt7__cxx1112basic_stringIcSt11char_traitsIcESaIcEEEE7isEmptyEv
FNDA:0,_ZNK5ArrayIcE7isEmptyEv
FNDA:0,_ZNK5ArrayIdE7isEmptyEv
FNDA:2,_ZNK5ArrayIiE7isEmptyEv
FNDA:1,_ZNK5ArrayImE7isEmptyEv
FNDA:2,_ZN5ArrayIiEC2Ev
FNDA:0,_ZNK5ArrayINSt7__cxx1112basic_stringIcSt11char_traitsIcESaIcEEEEeqERKS6_
FNDA:0,_ZNK5ArrayIcEeqERKS0_
FNDA:0,_ZNK5ArrayIdEeqERKS0_
FNDA:7,_ZNK5ArrayIiEeqERKS0_
FNDA:0,_ZNK5ArrayImEeqERKS0_
FNDA:0,_ZNK5ArrayINSt7__cxx1112basic_stringIcSt11char_traitsIcESaIcEEEEneERKS6_
FNDA:0,_ZNK5ArrayIcEneERKS0_
FNDA:0,_ZNK5ArrayIdEneERKS0_
FNDA:3,_ZNK5ArrayIiEneERKS0_
FNDA:0,_ZNK5ArrayImEneERKS0_
FNDA:1,_ZN5ArrayIiE7foreachIZL23CATCH2_INTERNAL_TEST_29vEUlRiE_EEvOKT_
FNDA:4,_ZN5ArrayINSt7__cxx1112basic_stringIcSt11char_traitsIcESaIcEEEEC2Em
FNDA:13,_ZN5ArrayIcEC2Em
FNDA:1,_ZN5ArrayIdEC2Em
FNDA:48,_ZN5ArrayIiEC2Em
FNDA:31,_ZN5ArrayImEC2Em
FNDA:1,_ZN5ArrayIiE3allIZL23CATCH2_INTERNAL_TEST_29vEUlRiE10_EEbOKT_
FNDA:1,_ZN5ArrayIiE3allIZL23CATCH2_INTERNAL_TEST_29vEUlRiE7_EEbOKT_
FNDA:1,_ZN5ArrayIiE3anyIZL23CATCH2_INTERNAL_TEST_29vEUlRiE1_EEbOKT_
FNDA:1,_ZN5ArrayIiE3anyIZL23CATCH2_INTERNAL_TEST_29vEUlRiE4_EEbOKT_
FNDA:50,_ZN5ArrayIcEC2EPKcm
FNDA:3,_ZN5ArrayIiEC2EPKim
FNDA:4,_ZN14ResizableArrayINSt7__cxx1112basic_stringIcSt11char_traitsIcESaIcEEEEC2Em
FNDA:13,_ZN14ResizableArrayIcEC2Em
FNDA:1,_ZN14ResizableArrayIdEC2Em
FNDA:24,_ZN14ResizableArrayIiEC2Em
FNDA:17,_ZN14ResizableArrayImEC2Em
FNDA:50,_ZN14ResizableArrayIcEC2EPKcm
FNDA:4,_ZN14ResizableArrayINSt7__cxx1112basic_stringIcSt11char_traitsIcESaIcEEEE6resizeEm
FNDA:1,_ZN14ResizableArrayIdE6resizeEm
FNDA:83,_ZN14ResizableArrayIiE6resizeEm
FNDA:16,_ZN14ResizableArrayImE6resizeEm
FNDA:0,_ZN14ResizableArrayINSt7__cxx1112basic_stringIcSt11char_traitsIcESaIcEEEE11resizeForceEm
FNDA:0,_ZN14ResizableArrayIdE11resizeForceEm
FNDA:4,_ZN14ResizableArrayIiE11resizeForceEm
FNDA:0,_ZN14ResizableArrayImE11resizeForceEm
FNDA:4,_ZN12DynamicArrayINSt7__cxx1112basic_stringIcSt11char_traitsIcESaIcEEEEC2Ev
FNDA:1,_ZN12DynamicArrayIdEC2Ev
FNDA:11,_ZN12DynamicArrayIiEC2Ev
FNDA:17,_ZN12DynamicArrayImEC2Ev
FNDA:6,_ZN12DynamicArrayIiEC2Em
FNDA:1,_ZN12DynamicArrayIiEC2Emm
FNDA:84,_ZN12DynamicArrayINSt7__cxx1112basic_stringIcSt11char_traitsIcESaIcEEEEixEm
FNDA:3,_ZN12DynamicArrayIdEixEm
FNDA:78018,_ZN12DynamicArrayIiEixEm
FNDA:10019,_ZN12DynamicArrayImEixEm
FNDA:89,_ZNK12DynamicArrayINSt7__cxx1112basic_stringIcSt11char_traitsIcESaIcEEEE8getCountEv
FNDA:0,_ZNK12DynamicArrayIdE8getCountEv
FNDA:58012,_ZNK12DynamicArrayIiE8getCountEv
FNDA:70,_ZNK12DynamicArrayImE8getCountEv
FNDA:17,_ZNK12DynamicArrayINSt7__cxx1112basic_stringIcSt11char_traitsIcESaIcEEEE6getCapEv
FNDA:3,_ZNK12DynamicArrayIdE6getCapEv
FNDA:60043,_ZNK12DynamicArrayIiE6getCapEv
FNDA:10031,_ZNK12DynamicArrayImE6getCapEv
FNDA:1,_ZNK12DynamicArrayIiE15getResizeFactorEv
FNDA:15,_ZN12DynamicArrayINSt7__cxx1112basic_stringIcSt11char_traitsIcESaIcEEEE3addES5_
FNDA:3,_ZN12DynamicArrayIdE3addEd
FNDA:60029,_ZN12DynamicArrayIiE3addEi
FNDA:10028,_ZN12DynamicArrayImE3addEm
FNDA:0,_ZN12DynamicArrayINSt7__cxx1112basic_stringIcSt11char_traitsIcESaIcEEEE3addES5_m
FNDA:0,_ZN12DynamicArrayIdE3addEdm
FNDA:0,_ZN12DynamicArrayIiE3addEim
FNDA:1,_ZN12DynamicArrayImE3addEmm
FNDA:4,_ZN5ArrayIiEC2ERKS0_
FNDA:0,_ZN12DynamicArrayINSt7__cxx1112basic_stringIcSt11char_traitsIcESaIcEEEE6removeEv
FNDA:0,_ZN12DynamicArrayIdE6removeEv
FNDA:7,_ZN12DynamicArrayIiE6removeEv
FNDA:0,_ZN12DynamicArrayImE6removeEv
FNDA:2,_ZN12DynamicArrayINSt7__cxx1112basic_stringIcSt11char_traitsIcESaIcEEEE6removeEm
FNDA:0,_ZN12DynamicArrayIdE6removeEm
FNDA:2,_ZN12DynamicArrayIiE6removeEm
FNDA:0,_ZN12DynamicArrayImE6removeEm
FNDA:1,_ZN12DynamicArrayIiE7foreachIRZL23CATCH2_INTERNAL_TEST_19vEUlRiE_EEvmOT_
FNDA:1,_ZN12DynamicArrayIiE7foreachIZL23CATCH2_INTERNAL_TEST_19vEUlRiE0_EEvmOT_
FNDA:14,_ZN12DynamicArrayImE7foreachIRZNS0_7toArrayEvEUlRmmE_EEvmOT_
FNDA:1,_ZN12DynamicArrayIiE7foreachIZL23CATCH2_INTERNAL_TEST_19vEUlRiE_EEvOT_
FNDA:14,_ZN12DynamicArrayImE7foreachIZNS0_7toArrayEvEUlRmmE_EEvOT_
FNDA:1,_ZN12DynamicArrayIiE3anyIZL23CATCH2_INTERNAL_TEST_19vEUlRiE5_EEbOT_
FNDA:1,_ZN12DynamicArrayIiE3anyIZL23CATCH2_INTERNAL_TEST_19vEUlRiE8_EEbOT_
FNDA:1,_ZN12DynamicArrayIiE3allIZL23CATCH2_INTERNAL_TEST_19vEUlRiE2_EEbOT_
FNDA:1,_ZN12DynamicArrayIiE3allIZL23CATCH2_INTERNAL_TEST_19vEUlRimE0_EEbOT_
FNDA:14,_ZN12DynamicArrayImE7toArrayEv
FNDA:16,_ZZN12DynamicArrayImE7toArrayEvENKUlRmmE_clES1_m
FNDA:14,_ZNK5ArrayIiE4findERKi
FNF:114
FNH:87
DA:20,2
DA:21,2
DA:22,2
DA:23,2
DA:25,97
DA:26,97
DA:27,97
DA:29,1
DA:32,649
DA:33,96
DA:34,96
DA:36,53
DA:37,53
DA:38,53
DA:40,0
DA:43,53
DA:45,0
DA:48,663
DA:49,663
DA:51,610
DA:53,53
DA:54,53
DA:56,4
DA:57,4
DA:58,24
DA:60,24
DA:62,20
DA:65,4
DA:66,4
DA:100,7
DA:102,7
DA:104,7
DA:106,36
DA:107,36
DA:109,29
DA:112,7
DA:113,7
DA:116,7
DA:119,1
DA:121,1
DA:124,155
DA:126,171
DA:127,155
DA:129,190296
DA:136,190296
DA:138,190293
DA:142,3
DA:146,523
DA:153,523
DA:155,523
DA:159,0
DA:163,70151
DA:165,70151
DA:168,3
DA:170,3
DA:217,7
DA:219,7
DA:220,0
DA:222,31
DA:223,27
DA:224,3
DA:226,4
DA:229,3
DA:231,3
DA:234,1
DA:236,6
DA:240,5
DA:252,1
DA:274,2
DA:276,11
DA:280,10
DA:281,1
DA:294,1
DA:321,2
DA:323,11
DA:327,10
DA:328,1
DA:341,1
DA:372,59
DA:374,50
DA:384,104
DA:386,104
DA:388,1
DA:391,103
DA:393,229511
DA:394,114806
DA:396,114705
DA:398,109
DA:399,101
DA:401,101
DA:403,2
DA:405,1
DA:409,1
DA:422,4
DA:424,4
DA:426,0
DA:429,4
DA:431,0
DA:435,11
DA:436,11
DA:438,7
DA:440,4
DA:442,4
DA:443,4
DA:457,33
DA:459,33
DA:460,33
DA:461,33
DA:463,6
DA:465,6
DA:467,0
DA:470,6
DA:471,6
DA:472,6
DA:474,1
DA:476,1
DA:478,0
DA:481,1
DA:483,0
DA:486,1
DA:487,1
DA:488,1
DA:490,88124
DA:492,88124
DA:494,0
DA:497,88124
DA:499,3
DA:503,88121
DA:522,58171
DA:524,58171
DA:527,70094
DA:529,70094
DA:532,1
DA:534,1
DA:537,70075
DA:539,70075
DA:541,100
DA:544,70075
DA:545,70075
DA:547,1
DA:549,1
DA:551,0
DA:554,1
DA:556,0
DA:560,1
DA:562,0
DA:565,15884
DA:567,15883
DA:570,1
DA:571,1
DA:572,1
DA:578,7
DA:580,7
DA:582,6
DA:583,6
DA:585,2
DA:590,1
DA:592,6
DA:601,4
DA:603,4
DA:605,0
DA:608,4
DA:610,1
DA:613,3
DA:615,0
DA:619,3
DA:621,9
DA:623,6
DA:626,3
DA:628,0
DA:630,3
DA:634,16
DA:636,16
DA:637,1
DA:639,15
DA:640,0
DA:642,18031
DA:645,18000
DA:647,16
DA:654,15
DA:656,15
DA:657,15
DA:659,2
DA:661,20001
DA:665,20000
DA:666,1
DA:679,1
DA:682,2
DA:684,20001
DA:688,10000
DA:689,1
DA:693,10000
DA:694,0
DA:702,1
DA:705,14
DA:707,14
DA:708,30
DA:709,14
DA:710,0
DA:718,14
DA:720,14
DA:721,84
DA:723,70
DA:725,16
DA:729,28
DA:730,14
LF:206
LH:187
end_of_record
TN:
SF:/home/runner/work/CppUtil/CppUtil/Array/test/ArrayTest.cpp
FN:124,137,_ZL23CATCH2_INTERNAL_TEST_16v
FN:129,129,_ZZL23CATCH2_INTERNAL_TEST_16vENKUlvE_clEv
FN:139,160,_ZL23CATCH2_INTERNAL_TEST_19v
FN:162,203,_ZL23CATCH2_INTERNAL_TEST_23v
FN:205,244,_ZL23CATCH2_INTERNAL_TEST_29v
FN:216,216,_ZZL23CATCH2_INTERNAL_TEST_29vENKUlRiE_clES_
FN:227,227,_ZZL23CATCH2_INTERNAL_TEST_29vENKUlRiE1_clES_
FN:232,232,_ZZL23CATCH2_INTERNAL_TEST_29vENKUlRiE4_clES_
FN:237,237,_ZZL23CATCH2_INTERNAL_TEST_29vENKUlRiE7_clES_
FN:242,242,_ZZL23CATCH2_INTERNAL_TEST_29vENKUlRiE10_clES_
FN:33,82,_ZL22CATCH2_INTERNAL_TEST_4v
FN:38,38,_ZZL22CATCH2_INTERNAL_TEST_4vENKUlvE_clEv
FN:7,31,_ZL22CATCH2_INTERNAL_TEST_0v
FN:84,122,_ZL23CATCH2_INTERNAL_TEST_11v
FNDA:1,_ZL23CATCH2_INTERNAL_TEST_16v
FNDA:1,_ZZL23CATCH2_INTERNAL_TEST_16vENKUlvE_clEv
FNDA:2,_ZL23CATCH2_INTERNAL_TEST_19v
FNDA:4,_ZL23CATCH2_INTERNAL_TEST_23v
FNDA:5,_ZL23CATCH2_INTERNAL_TEST_29v
FNDA:5,_ZZL23CATCH2_INTERNAL_TEST_29vENKUlRiE_clES_
FNDA:5,_ZZL23CATCH2_INTERNAL_TEST_29vENKUlRiE1_clES_
FNDA:5,_ZZL23CATCH2_INTERNAL_TEST_29vENKUlRiE4_clES_
FNDA:5,_ZZL23CATCH2_INTERNAL_TEST_29vENKUlRiE7_clES_
FNDA:5,_ZZL23CATCH2_INTERNAL_TEST_29vENKUlRiE10_clES_
FNDA:5,_ZL22CATCH2_INTERNAL_TEST_4v
FNDA:1,_ZZL22CATCH2_INTERNAL_TEST_4vENKUlvE_clEv
FNDA:2,_ZL22CATCH2_INTERNAL_TEST_0v
FNDA:3,_ZL23CATCH2_INTERNAL_TEST_11v
FNF:14
FNH:14
DA:7,2
DA:9,2
DA:10,2
DA:11,2
DA:12,2
DA:14,2
DA:16,1
DA:17,1
DA:18,1
DA:20,1
DA:22,1
DA:23,2
DA:25,2
DA:27,1
DA:28,1
DA:29,1
DA:30,2
DA:31,2
DA:33,5
DA:35,5
DA:37,1
DA:38,2
DA:44,5
DA:46,5
DA:48,1
DA:49,1
DA:50,6
DA:52,5
DA:54,1
DA:55,1
DA:56,1
DA:57,6
DA:58,5
DA:60,1
DA:61,1
DA:62,6
DA:64,5
DA:66,1
DA:67,1
DA:68,1
DA:69,1
DA:70,1
DA:71,1
DA:73,1
DA:75,1
DA:76,1
DA:77,1
DA:78,1
DA:79,1
DA:80,1
DA:81,6
DA:82,5
DA:84,3
DA:86,3
DA:87,3
DA:88,3
DA:89,3
DA:90,3
DA:91,3
DA:93,3
DA:94,3
DA:95,3
DA:96,3
DA:97,3
DA:98,3
DA:99,3
DA:101,3
DA:103,1
DA:104,3
DA:106,3
DA:108,1
DA:109,1
DA:110,1
DA:111,3
DA:113,3
DA:115,1
DA:116,1
DA:118,1
DA:119,1
DA:120,1
DA:121,3
DA:122,3
DA:124,1
DA:126,1
DA:128,1
DA:129,3
DA:136,2
DA:137,1
DA:139,2
DA:141,2
DA:143,1
DA:144,1
DA:145,1
DA:147,1
DA:148,1
DA:149,3
DA:151,2
DA:153,1
DA:154,1
DA:155,1
DA:157,1
DA:158,1
DA:159,3
DA:160,2
DA:162,4
DA:164,4
DA:165,4
DA:166,4
DA:167,4
DA:168,4
DA:169,4
DA:171,4
DA:173,1
DA:174,1
DA:175,1
DA:176,1
DA:177,1
DA:178,4
DA:180,4
DA:182,1
DA:183,1
DA:184,1
DA:185,1
DA:186,1
DA:187,4
DA:189,4
DA:191,1
DA:193,1
DA:195,1
DA:196,1
DA:197,4
DA:199,4
DA:201,1
DA:202,4
DA:203,4
DA:205,5
DA:207,5
DA:208,5
DA:209,5
DA:210,5
DA:211,5
DA:212,5
DA:214,5
DA:216,1
DA:218,1
DA:219,1
DA:220,1
DA:221,1
DA:222,1
DA:223,5
DA:225,5
DA:227,6
DA:228,5
DA:230,5
DA:232,6
DA:233,5
DA:235,5
DA:237,6
DA:238,5
DA:240,5
DA:242,6
DA:243,5
DA:244,5
LF:163
LH:163
end_of_record
TN:
SF:/home/runner/work/CppUtil/CppUtil/Array/test/DynamicArrayTest.cpp
FN:103,139,_ZL23CATCH2_INTERNAL_TEST_14v
FN:11,32,_ZL22CATCH2_INTERNAL_TEST_0v
FN:141,193,_ZL23CATCH2_INTERNAL_TEST_19v
FN:151,151,_ZZL23CATCH2_INTERNAL_TEST_19vENKUlRiE_clES_
FN:161,161,_ZZL23CATCH2_INTERNAL_TEST_19vENKUlRiE0_clES_
FN:176,176,_ZZL23CATCH2_INTERNAL_TEST_19vENKUlRimE0_clES_m
FN:181,181,_ZZL23CATCH2_INTERNAL_TEST_19vENKUlRiE2_clES_
FN:186,186,_ZZL23CATCH2_INTERNAL_TEST_19vENKUlRiE5_clES_
FN:191,191,_ZZL23CATCH2_INTERNAL_TEST_19vENKUlRiE8_clES_
FN:34,53,_ZL22CATCH2_INTERNAL_TEST_5v
FN:55,101,_ZL22CATCH2_INTERNAL_TEST_9v
FNDA:3,_ZL23CATCH2_INTERNAL_TEST_14v
FNDA:3,_ZL22CATCH2_INTERNAL_TEST_0v
FNDA:6,_ZL23CATCH2_INTERNAL_TEST_19v
FNDA:10000,_ZZL23CATCH2_INTERNAL_TEST_19vENKUlRiE_clES_
FNDA:8000,_ZZL23CATCH2_INTERNAL_TEST_19vENKUlRiE0_clES_
FNDA:10000,_ZZL23CATCH2_INTERNAL_TEST_19vENKUlRimE0_clES_m
FNDA:10000,_ZZL23CATCH2_INTERNAL_TEST_19vENKUlRiE2_clES_
FNDA:10000,_ZZL23CATCH2_INTERNAL_TEST_19vENKUlRiE5_clES_
FNDA:10000,_ZZL23CATCH2_INTERNAL_TEST_19vENKUlRiE8_clES_
FNDA:2,_ZL22CATCH2_INTERNAL_TEST_5v
FNDA:3,_ZL22CATCH2_INTERNAL_TEST_9v
FNF:11
FNH:11
DA:11,3
DA:13,3
DA:15,3
DA:17,1
DA:18,3
DA:20,3
DA:22,1
DA:23,1
DA:24,3
DA:26,3
DA:28,1
DA:29,1
DA:30,1
DA:31,3
DA:32,3
DA:34,2
DA:36,2
DA:37,2
DA:38,2
DA:39,2
DA:40,2
DA:41,2
DA:43,2
DA:45,1
DA:46,1
DA:47,2
DA:49,2
DA:51,1
DA:52,2
DA:53,2
DA:55,3
DA:57,3
DA:59,3
DA:61,1
DA:62,1
DA:64,1
DA:65,1
DA:66,3
DA:68,3
DA:70,11
DA:72,10
DA:75,1
DA:76,3
DA:78,3
DA:80,1
DA:82,10001
DA:84,10000
DA:87,1
DA:89,501
DA:91,500
DA:94,1
DA:96,9501
DA:98,9500
DA:100,3
DA:101,3
DA:103,3
DA:105,3
DA:106,3
DA:107,3
DA:108,3
DA:109,3
DA:110,3
DA:112,3
DA:114,1
DA:115,1
DA:116,3
DA:118,3
DA:120,1
DA:121,1
DA:122,1
DA:123,1
DA:124,1
DA:125,1
DA:126,3
DA:128,3
DA:130,1
DA:131,1
DA:132,1
DA:133,1
DA:134,1
DA:136,1
DA:137,1
DA:138,3
DA:139,3
DA:141,6
DA:143,6
DA:144,60006
DA:146,60000
DA:149,6
DA:151,1
DA:153,10001
DA:155,10000
DA:157,6
DA:159,6
DA:161,1
DA:163,2001
DA:165,2000
DA:168,8001
DA:170,8000
DA:172,6
DA:174,6
DA:176,10001
DA:177,6
DA:179,6
DA:181,10001
DA:182,6
DA:184,6
DA:186,10001
DA:187,6
DA:189,6
DA:191,10001
DA:192,6
DA:193,6
LF:113
LH:113
end_of_record
TN:
SF:/home/runner/work/CppUtil/CppUtil/Array/test/ResizableArrayTest.cpp
FN:6,49,_ZL22CATCH2_INTERNAL_TEST_0v
FNDA:6,_ZL22CATCH2_INTERNAL_TEST_0v
FNF:1
FNH:1
DA:6,6
DA:8,6
DA:9,6
DA:10,6
DA:11,6
DA:12,6
DA:13,6
DA:15,6
DA:17,1
DA:18,1
DA:19,1
DA:20,1
DA:21,1
DA:22,1
DA:23,6
DA:25,6
DA:27,1
DA:28,6
DA:30,6
DA:32,1
DA:33,6
DA:35,6
DA:37,1
DA:38,6
DA:40,6
DA:42,1
DA:43,6
DA:45,6
DA:47,1
DA:48,6
DA:49,6
LF:31
LH:31
end_of_record
TN:
SF:/home/runner/work/CppUtil/CppUtil/Async/src/Async.hpp
FN:102,106,_ZN7CppUtil6FutureIiE8setThrowENSt15__exception_ptr13exception_ptrE
FN:115,115,_ZN7CppUtil6FutureIvEC2Ev
FN:117,120,_ZN7CppUtil6FutureIvE9asPromiseEv
FN:122,126,_ZN7CppUtil6FutureIvE6finishEv
FN:128,132,_ZN7CppUtil6FutureIvE8setThrowENSt15__exception_ptr13exception_ptrE
FN:138,158,_ZN7CppUtil5Async6_asyncIiPFiiiEJSt5tupleIJiiEEEEEvNS_6FutureIT_EET0_DpT1_
FN:138,158,_ZN7CppUtil5Async6_asyncIiZL22CATCH2_INTERNAL_TEST_0vEUlvE1_JSt5tupleIJEEEEEvNS_6FutureIT_EET0_DpT1_
FN:138,158,_ZN7CppUtil5Async6_asyncIiZZL22CATCH2_INTERNAL_TEST_0vENKUlvE0_clEvEUlvE_JSt5tupleIJEEEEEvNS_6FutureIT_EET0_DpT1_
FN:138,158,_ZN7CppUtil5Async6_asyncIiZZL22CATCH2_INTERNAL_TEST_0vENKUlvE_clEvEUlvE_JSt5tupleIJEEEEEvNS_6FutureIT_EET0_DpT1_
FN:138,158,_ZN7CppUtil5Async6_asyncIvPFviEJSt5tupleIJiEEEEEvNS_6FutureIT_EET0_DpT1_
FN:161,178,_ZN7CppUtil5Async5asyncIiRFiiiEJRiS4_EEENS_7PromiseIT_EEOT0_DpOT1_
FN:161,178,_ZN7CppUtil5Async5asyncIiZL22CATCH2_INTERNAL_TEST_0vEUlvE1_JEEENS_7PromiseIT_EEOT0_DpOT1_
FN:161,178,_ZN7CppUtil5Async5asyncIiZZL22CATCH2_INTERNAL_TEST_0vENKUlvE0_clEvEUlvE_JEEENS_7PromiseIT_EEOT0_DpOT1_
FN:161,178,_ZN7CppUtil5Async5asyncIiZZL22CATCH2_INTERNAL_TEST_0vENKUlvE_clEvEUlvE_JEEENS_7PromiseIT_EEOT0_DpOT1_
FN:161,178,_ZN7CppUtil5Async5asyncIvRFviEJRiEEENS_7PromiseIT_EEOT0_DpOT1_
FN:174,174,_ZZN7CppUtil5Async5asyncIiRFiiiEJRiS4_EEENS_7PromiseIT_EEOT0_DpOT1_ENUlvE_clEv
FN:174,174,_ZZN7CppUtil5Async5asyncIiZL22CATCH2_INTERNAL_TEST_0vEUlvE1_JEEENS_7PromiseIT_EEOT0_DpOT1_ENUlvE_clEv
FN:174,174,_ZZN7CppUtil5Async5asyncIiZZL22CATCH2_INTERNAL_TEST_0vENKUlvE0_clEvEUlvE_JEEENS_7PromiseIT_EEOT0_DpOT1_ENUlvE_clEv
FN:174,174,_ZZN7CppUtil5Async5asyncIiZZL22CATCH2_INTERNAL_TEST_0vENKUlvE_clEvEUlvE_JEEENS_7PromiseIT_EEOT0_DpOT1_ENUlvE_clEv
FN:174,174,_ZZN7CppUtil5Async5asyncIvRFviEJRiEEENS_7PromiseIT_EEOT0_DpOT1_ENUlvE_clEv
FN:31,31,_ZN7CppUtil7PromiseIiEC2ESt10shared_ptrINS_10AsyncStateEES2_IiE
FN:33,36,_ZN7CppUtil7PromiseIiE10isFinishedEv
FN:38,45,_ZN7CppUtil7PromiseIiE3getEv
FN:41,41,_ZZN7CppUtil7PromiseIiE3getEvENKUlvE_clEv
FN:59,59,_ZN7CppUtil7PromiseIvEC2ESt10shared_ptrINS_10AsyncStateEE
FN:66,73,_ZN7CppUtil7PromiseIvE3getEv
FN:69,69,_ZZN7CppUtil7PromiseIvE3getEvENKUlvE_clEv
FN:84,84,_ZN7CppUtil6FutureIiEC2Ev
FN:86,89,_ZN7CppUtil6FutureIiE9asPromiseEv
FN:91,94,_ZN7CppUtil6FutureIiE8setValueEi
FN:96,100,_ZN7CppUtil6FutureIiE6finishEv
FNDA:1,_ZN7CppUtil6FutureIiE8setThrowENSt15__exception_ptr13exception_ptrE
FNDA:1,_ZN7CppUtil6FutureIvEC2Ev
FNDA:1,_ZN7CppUtil6FutureIvE9asPromiseEv
FNDA:1,_ZN7CppUtil6FutureIvE6finishEv
FNDA:0,_ZN7CppUtil6FutureIvE8setThrowENSt15__exception_ptr13exception_ptrE
FNDA:2,_ZN7CppUtil5Async6_asyncIiPFiiiEJSt5tupleIJiiEEEEEvNS_6FutureIT_EET0_DpT1_
FNDA:1,_ZN7CppUtil5Async6_asyncIiZL22CATCH2_INTERNAL_TEST_0vEUlvE1_JSt5tupleIJEEEEEvNS_6FutureIT_EET0_DpT1_
FNDA:1,_ZN7CppUtil5Async6_asyncIiZZL22CATCH2_INTERNAL_TEST_0vENKUlvE0_clEvEUlvE_JSt5tupleIJEEEEEvNS_6FutureIT_EET0_DpT1_
FNDA:1,_ZN7CppUtil5Async6_asyncIiZZL22CATCH2_INTERNAL_TEST_0vENKUlvE_clEvEUlvE_JSt5tupleIJEEEEEvNS_6FutureIT_EET0_DpT1_
FNDA:1,_ZN7CppUtil5Async6_asyncIvPFviEJSt5tupleIJiEEEEEvNS_6FutureIT_EET0_DpT1_
FNDA:2,_ZN7CppUtil5Async5asyncIiRFiiiEJRiS4_EEENS_7PromiseIT_EEOT0_DpOT1_
FNDA:1,_ZN7CppUtil5Async5asyncIiZL22CATCH2_INTERNAL_TEST_0vEUlvE1_JEEENS_7PromiseIT_EEOT0_DpOT1_
FNDA:1,_ZN7CppUtil5Async5asyncIiZZL22CATCH2_INTERNAL_TEST_0vENKUlvE0_clEvEUlvE_JEEENS_7PromiseIT_EEOT0_DpOT1_
FNDA:1,_ZN7CppUtil5Async5asyncIiZZL22CATCH2_INTERNAL_TEST_0vENKUlvE_clEvEUlvE_JEEENS_7PromiseIT_EEOT0_DpOT1_
FNDA:1,_ZN7CppUtil5Async5asyncIvRFviEJRiEEENS_7PromiseIT_EEOT0_DpOT1_
FNDA:2,_ZZN7CppUtil5Async5asyncIiRFiiiEJRiS4_EEENS_7PromiseIT_EEOT0_DpOT1_ENUlvE_clEv
FNDA:1,_ZZN7CppUtil5Async5asyncIiZL22CATCH2_INTERNAL_TEST_0vEUlvE1_JEEENS_7PromiseIT_EEOT0_DpOT1_ENUlvE_clEv
FNDA:1,_ZZN7CppUtil5Async5asyncIiZZL22CATCH2_INTERNAL_TEST_0vENKUlvE0_clEvEUlvE_JEEENS_7PromiseIT_EEOT0_DpOT1_ENUlvE_clEv
FNDA:1,_ZZN7CppUtil5Async5asyncIiZZL22CATCH2_INTERNAL_TEST_0vENKUlvE_clEvEUlvE_JEEENS_7PromiseIT_EEOT0_DpOT1_ENUlvE_clEv
FNDA:1,_ZZN7CppUtil5Async5asyncIvRFviEJRiEEENS_7PromiseIT_EEOT0_DpOT1_ENUlvE_clEv
FNDA:5,_ZN7CppUtil7PromiseIiEC2ESt10shared_ptrINS_10AsyncStateEES2_IiE
FNDA:6,_ZN7CppUtil7PromiseIiE10isFinishedEv
FNDA:5,_ZN7CppUtil7PromiseIiE3getEv
FNDA:8,_ZZN7CppUtil7PromiseIiE3getEvENKUlvE_clEv
FNDA:1,_ZN7CppUtil7PromiseIvEC2ESt10shared_ptrINS_10AsyncStateEE
FNDA:1,_ZN7CppUtil7PromiseIvE3getEv
FNDA:2,_ZZN7CppUtil7PromiseIvE3getEvENKUlvE_clEv
FNDA:5,_ZN7CppUtil6FutureIiEC2Ev
FNDA:5,_ZN7CppUtil6FutureIiE9asPromiseEv
FNDA:4,_ZN7CppUtil6FutureIiE8setValueEi
FNDA:5,_ZN7CppUtil6FutureIiE6finishEv
FNF:31
FNH:30
DA:31,5
DA:33,6
DA:35,6
DA:38,5
DA:40,5
DA:41,13
DA:42,5
DA:43,2
DA:44,8
DA:45,5
DA:59,1
DA:66,1
DA:68,1
DA:69,3
DA:70,1
DA:71,0
DA:72,2
DA:73,1
DA:84,5
DA:86,5
DA:88,5
DA:91,4
DA:93,4
DA:94,4
DA:96,5
DA:98,5
DA:99,5
DA:100,5
DA:102,1
DA:104,1
DA:105,1
DA:106,1
DA:115,1
DA:117,1
DA:119,1
DA:122,1
DA:124,1
DA:125,1
DA:126,1
DA:128,0
DA:130,0
DA:131,0
DA:132,0
DA:138,6
DA:145,1
DA:149,5
DA:150,4
DA:153,1
DA:155,1
DA:157,6
DA:158,6
DA:161,6
DA:166,6
DA:171,6
DA:172,3
DA:174,24
DA:175,6
DA:176,6
DA:177,12
DA:178,6
LF:60
LH:55
end_of_record
TN:
SF:/home/runner/work/CppUtil/CppUtil/Async/test/AsyncTest.cpp
FN:10,10,_Z17__async__voidfunci
FN:10,10,_Z8voidfuncIJiEEN7CppUtil7PromiseIvEEDpOT_
FN:100,107,_ZZL22CATCH2_INTERNAL_TEST_0vENKUlvE1_clEv
FN:22,22,_Z13__async__funcii
FN:22,22,_Z4funcIJiiEEN7CppUtil7PromiseIiEEDpOT_
FN:30,132,_ZL22CATCH2_INTERNAL_TEST_0v
FN:34,34,_ZZL22CATCH2_INTERNAL_TEST_0vENKUlvE_clEv
FN:34,34,_ZZZL22CATCH2_INTERNAL_TEST_0vENKUlvE_clEvENKUlvE_clEv
FN:60,60,_ZZL22CATCH2_INTERNAL_TEST_0vENKUlvE0_clEv
FN:60,60,_ZZZL22CATCH2_INTERNAL_TEST_0vENKUlvE0_clEvENKUlvE_clEv
FN:86,89,_ZZL22CATCH2_INTERNAL_TEST_0vENK23ExceptionMessageMatcher5matchERKSt11logic_error
FN:91,94,_ZZL22CATCH2_INTERNAL_TEST_0vENK23ExceptionMessageMatcher8toStringEv
FNDA:1,_Z17__async__voidfunci
FNDA:1,_Z8voidfuncIJiEEN7CppUtil7PromiseIvEEDpOT_
FNDA:1,_ZZL22CATCH2_INTERNAL_TEST_0vENKUlvE1_clEv
FNDA:2,_Z13__async__funcii
FNDA:2,_Z4funcIJiiEEN7CppUtil7PromiseIiEEDpOT_
FNDA:6,_ZL22CATCH2_INTERNAL_TEST_0v
FNDA:1,_ZZL22CATCH2_INTERNAL_TEST_0vENKUlvE_clEv
FNDA:1,_ZZZL22CATCH2_INTERNAL_TEST_0vENKUlvE_clEvENKUlvE_clEv
FNDA:1,_ZZL22CATCH2_INTERNAL_TEST_0vENKUlvE0_clEv
FNDA:1,_ZZZL22CATCH2_INTERNAL_TEST_0vENKUlvE0_clEvENKUlvE_clEv
FNDA:1,_ZZL22CATCH2_INTERNAL_TEST_0vENK23ExceptionMessageMatcher5matchERKSt11logic_error
FNDA:0,_ZZL22CATCH2_INTERNAL_TEST_0vENK23ExceptionMessageMatcher8toStringEv
FNF:12
FNH:11
DA:10,2
DA:12,1
DA:13,1
DA:14,1
DA:15,1
DA:22,4
DA:24,2
DA:25,2
DA:26,2
DA:27,2
DA:30,6
DA:32,6
DA:34,6
DA:54,6
DA:56,6
DA:58,1
DA:60,7
DA:82,6
DA:86,1
DA:88,2
DA:91,0
DA:93,0
DA:97,6
DA:100,0
DA:102,1
DA:103,1
DA:104,1
DA:105,1
DA:107,1
DA:109,1
DA:111,1
DA:112,7
DA:114,6
DA:116,1
DA:118,1
DA:120,1
DA:121,7
DA:123,6
DA:125,1
DA:126,6
DA:128,6
DA:130,1
DA:131,6
DA:132,6
LF:44
LH:41
end_of_record
TN:
SF:/home/runner/work/CppUtil/CppUtil/Exception/src/Exception.hpp
FN:8,8,_ZN9not_foundC2ENSt7__cxx1112basic_stringIcSt11char_traitsIcESaIcEEE
FNDA:6,_ZN9not_foundC2ENSt7__cxx1112basic_stringIcSt11char_traitsIcESaIcEEE
FNF:1
FNH:1
DA:8,6
LF:1
LH:1
end_of_record
TN:
SF:/home/runner/work/CppUtil/CppUtil/Map/src/Map.hpp
FN:19,19,_ZN3MapINSt7__cxx1112basic_stringIcSt11char_traitsIcESaIcEEES5_EC2Ev
FN:19,19,_ZN3MapINSt7__cxx1112basic_stringIcSt11char_traitsIcESaIcEEEiEC2Ev
FN:21,28,_ZN3MapINSt7__cxx1112basic_stringIcSt11char_traitsIcESaIcEEEdEC2ESt16initializer_listISt4pairIKS5_dEE
FN:35,48,_ZN3MapINSt7__cxx1112basic_stringIcSt11char_traitsIcESaIcEEES5_EixERKS5_
FN:35,48,_ZN3MapINSt7__cxx1112basic_stringIcSt11char_traitsIcESaIcEEEdEixERKS5_
FN:35,48,_ZN3MapINSt7__cxx1112basic_stringIcSt11char_traitsIcESaIcEEEiEixERKS5_
FN:55,65,_ZN3MapINSt7__cxx1112basic_stringIcSt11char_traitsIcESaIcEEES5_E10tryGetItemERKS5_
FN:72,83,_ZN3MapINSt7__cxx1112basic_stringIcSt11char_traitsIcESaIcEEES5_E10trySetItemERKS5_S8_
FN:90,102,_ZN3MapINSt7__cxx1112basic_stringIcSt11char_traitsIcESaIcEEES5_E13tryRemoveItemERKS5_
FNDA:1,_ZN3MapINSt7__cxx1112basic_stringIcSt11char_traitsIcESaIcEEES5_EC2Ev
FNDA:1,_ZN3MapINSt7__cxx1112basic_stringIcSt11char_traitsIcESaIcEEEiEC2Ev
FNDA:1,_ZN3MapINSt7__cxx1112basic_stringIcSt11char_traitsIcESaIcEEEdEC2ESt16initializer_listISt4pairIKS5_dEE
FNDA:4,_ZN3MapINSt7__cxx1112basic_stringIcSt11char_traitsIcESaIcEEES5_EixERKS5_
FNDA:3,_ZN3MapINSt7__cxx1112basic_stringIcSt11char_traitsIcESaIcEEEdEixERKS5_
FNDA:9,_ZN3MapINSt7__cxx1112basic_stringIcSt11char_traitsIcESaIcEEEiEixERKS5_
FNDA:11,_ZN3MapINSt7__cxx1112basic_stringIcSt11char_traitsIcESaIcEEES5_E10tryGetItemERKS5_
FNDA:3,_ZN3MapINSt7__cxx1112basic_stringIcSt11char_traitsIcESaIcEEES5_E10trySetItemERKS5_S8_
FNDA:2,_ZN3MapINSt7__cxx1112basic_stringIcSt11char_traitsIcESaIcEEES5_E13tryRemoveItemERKS5_
FNF:9
FNH:9
DA:19,2
DA:21,1
DA:22,1
DA:23,4
DA:25,3
DA:26,3
DA:28,1
DA:35,16
DA:37,38
DA:39,30
DA:41,8
DA:45,8
DA:46,8
DA:47,8
DA:55,11
DA:57,31
DA:59,28
DA:61,8
DA:64,3
DA:72,3
DA:74,10
DA:76,8
DA:78,1
DA:79,1
DA:82,2
DA:90,2
DA:92,6
DA:94,5
DA:96,1
DA:97,1
DA:98,1
DA:101,1
LF:32
LH:32
end_of_record
TN:
SF:/home/runner/work/CppUtil/CppUtil/Map/test/MapTest.cpp
FN:28,63,_ZL22CATCH2_INTERNAL_TEST_2v
FN:32,32,_ZZL22CATCH2_INTERNAL_TEST_2vENKUlvE_clEv
FN:5,26,_ZL22CATCH2_INTERNAL_TEST_0v
FN:65,76,_ZL22CATCH2_INTERNAL_TEST_4v
FN:67,67,_ZZL22CATCH2_INTERNAL_TEST_4vENKUlvE_clEv
FN:9,9,_ZZL22CATCH2_INTERNAL_TEST_0vENKUlvE_clEv
FNDA:1,_ZL22CATCH2_INTERNAL_TEST_2v
FNDA:1,_ZZL22CATCH2_INTERNAL_TEST_2vENKUlvE_clEv
FNDA:1,_ZL22CATCH2_INTERNAL_TEST_0v
FNDA:1,_ZL22CATCH2_INTERNAL_TEST_4v
FNDA:1,_ZZL22CATCH2_INTERNAL_TEST_4vENKUlvE_clEv
FNDA:1,_ZZL22CATCH2_INTERNAL_TEST_0vENKUlvE_clEv
FNF:6
FNH:6
DA:5,1
DA:7,1
DA:9,25
DA:26,1
DA:28,1
DA:30,1
DA:32,56
DA:63,1
DA:65,1
DA:67,14
DA:76,1
LF:11
LH:11
end_of_record
TN:
SF:/home/runner/work/CppUtil/CppUtil/String/src/String.hpp
FN:118,138,_ZN6String6insertES_m
FN:17,17,_ZN6StringC2Em
FN:20,20,_ZN6StringC2Ev
FN:22,22,_ZN6StringC2EPKc
FN:24,24,_ZN6StringC2ENSt7__cxx1112basic_stringIcSt11char_traitsIcESaIcEEE
FN:26,39,_ZNK6StringplERKS_
FN:46,56,_ZNK6StringeqERKS_
FN:58,61,_ZNK6StringneERKS_
FN:63,74,_ZNK6StringeqEPKc
FN:81,84,_ZNK6String6lengthEv
FN:87,116,_ZN6String6removeEmm
FNDA:2,_ZN6String6insertES_m
FNDA:9,_ZN6StringC2Em
FNDA:4,_ZN6StringC2Ev
FNDA:49,_ZN6StringC2EPKc
FNDA:1,_ZN6StringC2ENSt7__cxx1112basic_stringIcSt11char_traitsIcESaIcEEE
FNDA:9,_ZNK6StringplERKS_
FNDA:16,_ZNK6StringeqERKS_
FNDA:9,_ZNK6StringneERKS_
FNDA:15,_ZNK6StringeqEPKc
FNDA:7,_ZNK6String6lengthEv
FNDA:2,_ZN6String6removeEmm
FNF:11
FNH:11
DA:17,9
DA:20,4
DA:22,49
DA:24,1
DA:26,9
DA:28,9
DA:29,61
DA:31,52
DA:33,45
DA:35,36
DA:37,9
DA:38,9
DA:39,0
DA:46,16
DA:48,16
DA:49,2
DA:50,103
DA:52,90
DA:53,1
DA:55,13
DA:58,9
DA:60,9
DA:63,15
DA:65,15
DA:66,0
DA:68,146
DA:70,131
DA:71,0
DA:73,15
DA:81,7
DA:83,7
DA:87,2
DA:89,2
DA:90,0
DA:92,2
DA:93,0
DA:95,2
DA:96,0
DA:101,2
DA:102,2
DA:103,20
DA:105,18
DA:107,8
DA:108,8
DA:111,10
DA:113,2
DA:114,2
DA:115,2
DA:118,2
DA:120,2
DA:121,2
DA:122,2
DA:124,16
DA:126,18
DA:128,4
DA:129,4
DA:132,14
DA:135,2
DA:136,2
DA:137,2
DA:138,2
LF:61
LH:55
end_of_record
TN:
SF:/home/runner/work/CppUtil/CppUtil/String/test/StringTest.cpp
FN:105,112,_ZL23CATCH2_INTERNAL_TEST_18v
FN:114,126,_ZL23CATCH2_INTERNAL_TEST_20v
FN:128,143,_ZL23CATCH2_INTERNAL_TEST_23v
FN:28,52,_ZL22CATCH2_INTERNAL_TEST_5v
FN:5,26,_ZL22CATCH2_INTERNAL_TEST_0v
FN:54,103,_ZL23CATCH2_INTERNAL_TEST_10v
FNDA:1,_ZL23CATCH2_INTERNAL_TEST_18v
FNDA:1,_ZL23CATCH2_INTERNAL_TEST_20v
FNDA:2,_ZL23CATCH2_INTERNAL_TEST_23v
FNDA:3,_ZL22CATCH2_INTERNAL_TEST_5v
FNDA:3,_ZL22CATCH2_INTERNAL_TEST_0v
FNDA:6,_ZL23CATCH2_INTERNAL_TEST_10v
FNF:6
FNH:6
DA:5,3
DA:7,3
DA:9,3
DA:11,1
DA:12,3
DA:14,3
DA:16,1
DA:17,1
DA:18,3
DA:20,3
DA:22,1
DA:23,1
DA:24,1
DA:25,4
DA:26,3
DA:28,3
DA:30,3
DA:31,3
DA:33,3
DA:35,1
DA:36,1
DA:37,1
DA:38,1
DA:39,3
DA:41,3
DA:43,1
DA:44,3
DA:46,3
DA:48,1
DA:50,1
DA:51,3
DA:52,3
DA:54,6
DA:56,6
DA:58,6
DA:60,1
DA:61,1
DA:62,1
DA:63,6
DA:65,6
DA:67,1
DA:68,1
DA:69,1
DA:70,6
DA:72,6
DA:74,1
DA:76,1
DA:77,1
DA:78,1
DA:79,7
DA:81,6
DA:83,1
DA:84,1
DA:85,1
DA:86,6
DA:88,6
DA:90,1
DA:91,1
DA:92,1
DA:93,6
DA:95,6
DA:97,1
DA:99,1
DA:100,1
DA:101,1
DA:102,7
DA:103,6
DA:105,1
DA:107,1
DA:109,1
DA:110,1
DA:111,1
DA:112,1
DA:114,1
DA:116,1
DA:118,1
DA:120,1
DA:121,1
DA:123,1
DA:124,1
DA:125,1
DA:126,1
DA:128,2
DA:130,2
DA:132,2
DA:134,1
DA:135,1
DA:136,2
DA:138,2
DA:140,1
DA:141,1
DA:142,2
DA:143,2
LF:93
LH:93
end_of_record
